target datalayout = "e-m:e-p270:32:32-p271:32:32-p272:64:64-i64:64-i128:128-f80:128-n8:16:32:64-S128"
target triple = "x86_64-pc-linux-gnu"

@l_Lean_Elab_Tactic_Conv_evalSkip___regBuiltin_Lean_Elab_Tactic_Conv_evalSkip__1___closed__1 = internal global ptr null, align 8
@l_Lean_Elab_Tactic_Conv_evalSkip___regBuiltin_Lean_Elab_Tactic_Conv_evalSkip__1___closed__2 = internal global ptr null, align 8
@l_Lean_Elab_Tactic_Conv_evalSkip___regBuiltin_Lean_Elab_Tactic_Conv_evalSkip__1___closed__3 = internal global ptr null, align 8
@l_Lean_Elab_Tactic_Conv_evalSkip___regBuiltin_Lean_Elab_Tactic_Conv_evalSkip__1___closed__4 = internal global ptr null, align 8
@l_Std_Range_forIn_x27_loop___at_Lean_Elab_Tactic_Conv_evalEnter___spec__1___closed__1 = internal global ptr null, align 8

; Function Attrs: nounwind uwtable
define internal ptr @_init_l_Std_Range_forIn_x27_loop___at_Lean_Elab_Tactic_Conv_evalEnter___spec__1___closed__2() #2 {
  %1 = alloca ptr, align 8
  %2 = alloca ptr, align 8
  %3 = alloca ptr, align 8
  %4 = alloca ptr, align 8
  %5 = alloca ptr, align 8
  %6 = alloca ptr, align 8
  br label %7

7:                                                ; preds = %0
  call void @llvm.lifetime.start.p0(i64 8, ptr %1) #7
  call void @llvm.lifetime.start.p0(i64 8, ptr %2) #7
  call void @llvm.lifetime.start.p0(i64 8, ptr %3) #7
  call void @llvm.lifetime.start.p0(i64 8, ptr %4) #7
  call void @llvm.lifetime.start.p0(i64 8, ptr %5) #7
  call void @llvm.lifetime.start.p0(i64 8, ptr %6) #7
  %8 = load ptr, ptr @l_Lean_Elab_Tactic_Conv_evalSkip___regBuiltin_Lean_Elab_Tactic_Conv_evalSkip__1___closed__1, align 8, !tbaa !8
  store ptr %8, ptr %1, align 8, !tbaa !8
  %9 = load ptr, ptr @l_Lean_Elab_Tactic_Conv_evalSkip___regBuiltin_Lean_Elab_Tactic_Conv_evalSkip__1___closed__2, align 8, !tbaa !8
  store ptr %9, ptr %2, align 8, !tbaa !8
  %10 = load ptr, ptr @l_Lean_Elab_Tactic_Conv_evalSkip___regBuiltin_Lean_Elab_Tactic_Conv_evalSkip__1___closed__3, align 8, !tbaa !8
  store ptr %10, ptr %3, align 8, !tbaa !8
  %11 = load ptr, ptr @l_Lean_Elab_Tactic_Conv_evalSkip___regBuiltin_Lean_Elab_Tactic_Conv_evalSkip__1___closed__4, align 8, !tbaa !8
  store ptr %11, ptr %4, align 8, !tbaa !8
  %12 = load ptr, ptr @l_Std_Range_forIn_x27_loop___at_Lean_Elab_Tactic_Conv_evalEnter___spec__1___closed__1, align 8, !tbaa !8
  store ptr %12, ptr %5, align 8, !tbaa !8
  %13 = load ptr, ptr %1, align 8, !tbaa !8
  %14 = load ptr, ptr %2, align 8, !tbaa !8
  %15 = load ptr, ptr %3, align 8, !tbaa !8
  %16 = load ptr, ptr %4, align 8, !tbaa !8
  %17 = load ptr, ptr %5, align 8, !tbaa !8
  %18 = call ptr @l_Lean_Name_mkStr5(ptr noundef %13, ptr noundef %14, ptr noundef %15, ptr noundef %16, ptr noundef %17)
  store ptr %18, ptr %6, align 8, !tbaa !8
  %19 = load ptr, ptr %6, align 8, !tbaa !8
  call void @llvm.lifetime.end.p0(i64 8, ptr %6) #7
  call void @llvm.lifetime.end.p0(i64 8, ptr %5) #7
  call void @llvm.lifetime.end.p0(i64 8, ptr %4) #7
  call void @llvm.lifetime.end.p0(i64 8, ptr %3) #7
  call void @llvm.lifetime.end.p0(i64 8, ptr %2) #7
  call void @llvm.lifetime.end.p0(i64 8, ptr %1) #7
  ret ptr %19
}